target datalayout = "e-m:e-p270:32:32-p271:32:32-p272:64:64-i64:64-i128:128-f80:128-n8:16:32:64-S128"
target triple = "x86_64-pc-linux-gnu"

; Function Attrs: mustprogress uwtable
define internal void @"_ZNSt14_Function_base13_Base_managerIZN4pbrt5Image23GetSamplingDistributionIZNS1_15ProjectionLightC1ENS1_9TransformENS1_15MediumInterfaceES2_PKNS1_13RGBColorSpaceEffN4pstd3pmr21polymorphic_allocatorISt4byteEEE3$_0EENS1_7Array2DIfEET_RKNS1_7Bounds2IfEESE_EUlllE_E9_M_createIRKSN_EEvRSt9_Any_dataOSI_St17integral_constantIbLb0EE"(ptr noundef nonnull align 8 dereferenceable(16) %0, ptr noundef nonnull align 8 dereferenceable(32) %1) #1 align 2 {
  %3 = alloca ptr, align 8
  %4 = alloca ptr, align 8
  store ptr %0, ptr %3, align 8, !tbaa !850
  store ptr %1, ptr %4, align 8, !tbaa !13
  %5 = call noalias noundef nonnull ptr @_Znwm(i64 noundef 32) #24
  %6 = load ptr, ptr %4, align 8, !tbaa !13
  call void @llvm.memcpy.p0.p0.i64(ptr align 16 %5, ptr align 8 %6, i64 32, i1 false), !tbaa.struct !856
  %7 = load ptr, ptr %3, align 8, !tbaa !850
  %8 = call noundef nonnull align 8 dereferenceable(8) ptr @"_ZNSt9_Any_data9_M_accessIPZN4pbrt5Image23GetSamplingDistributionIZNS1_15ProjectionLightC1ENS1_9TransformENS1_15MediumInterfaceES2_PKNS1_13RGBColorSpaceEffN4pstd3pmr21polymorphic_allocatorISt4byteEEE3$_0EENS1_7Array2DIfEET_RKNS1_7Bounds2IfEESE_EUlllE_EERSI_v"(ptr noundef nonnull align 8 dereferenceable(16) %7) #22
  store ptr %5, ptr %8, align 8, !tbaa !13
  ret void
}

; Function Attrs: mustprogress nounwind uwtable
define linkonce_odr dso_local noundef ptr @_ZNKSt9_Any_data9_M_accessEv(ptr noundef nonnull align 8 dereferenceable(16) %0) #6 comdat align 2 {
  %2 = alloca ptr, align 8
  store ptr %0, ptr %2, align 8, !tbaa !850
  %3 = load ptr, ptr %2, align 8
  %4 = getelementptr inbounds [16 x i8], ptr %3, i64 0, i64 0
  ret ptr %4
}

; Function Attrs: mustprogress nounwind uwtable
define internal void @"_ZNSt14_Function_base13_Base_managerIZN4pbrt5Image23GetSamplingDistributionIZNS1_15ProjectionLightC1ENS1_9TransformENS1_15MediumInterfaceES2_PKNS1_13RGBColorSpaceEffN4pstd3pmr21polymorphic_allocatorISt4byteEEE3$_0EENS1_7Array2DIfEET_RKNS1_7Bounds2IfEESE_EUlllE_E10_M_destroyERSt9_Any_dataSt17integral_constantIbLb0EE"(ptr noundef nonnull align 8 dereferenceable(16) %0) #6 align 2 {
  %2 = alloca ptr, align 8
  store ptr %0, ptr %2, align 8, !tbaa !850
  %3 = load ptr, ptr %2, align 8, !tbaa !850
  %4 = call noundef nonnull align 8 dereferenceable(8) ptr @"_ZNSt9_Any_data9_M_accessIPZN4pbrt5Image23GetSamplingDistributionIZNS1_15ProjectionLightC1ENS1_9TransformENS1_15MediumInterfaceES2_PKNS1_13RGBColorSpaceEffN4pstd3pmr21polymorphic_allocatorISt4byteEEE3$_0EENS1_7Array2DIfEET_RKNS1_7Bounds2IfEESE_EUlllE_EERSI_v"(ptr noundef nonnull align 8 dereferenceable(16) %3) #22
  %5 = load ptr, ptr %4, align 8, !tbaa !13
  %6 = icmp eq ptr %5, null
  br i1 %6, label %8, label %7

7:                                                ; preds = %1
  call void @_ZdlPvm(ptr noundef %5, i64 noundef 32) #25
  br label %8

8:                                                ; preds = %7, %1
  ret void
}

; Function Attrs: mustprogress uwtable
define internal void @"_ZNSt14_Function_base13_Base_managerIZN4pbrt5Image23GetSamplingDistributionIZNS1_15ProjectionLightC1ENS1_9TransformENS1_15MediumInterfaceES2_PKNS1_13RGBColorSpaceEffN4pstd3pmr21polymorphic_allocatorISt4byteEEE3$_0EENS1_7Array2DIfEET_RKNS1_7Bounds2IfEESE_EUlllE_E15_M_init_functorIRKSN_EEvRSt9_Any_dataOSI_"(ptr noundef nonnull align 8 dereferenceable(16) %0, ptr noundef nonnull align 8 dereferenceable(32) %1) #1 align 2 {
  %3 = alloca ptr, align 8
  %4 = alloca ptr, align 8
  store ptr %0, ptr %3, align 8, !tbaa !850
  store ptr %1, ptr %4, align 8, !tbaa !13
  %5 = load ptr, ptr %3, align 8, !tbaa !850
  %6 = load ptr, ptr %4, align 8, !tbaa !13
  call void @"_ZNSt14_Function_base13_Base_managerIZN4pbrt5Image23GetSamplingDistributionIZNS1_15ProjectionLightC1ENS1_9TransformENS1_15MediumInterfaceES2_PKNS1_13RGBColorSpaceEffN4pstd3pmr21polymorphic_allocatorISt4byteEEE3$_0EENS1_7Array2DIfEET_RKNS1_7Bounds2IfEESE_EUlllE_E9_M_createIRKSN_EEvRSt9_Any_dataOSI_St17integral_constantIbLb0EE"(ptr noundef nonnull align 8 dereferenceable(16) %5, ptr noundef nonnull align 8 dereferenceable(32) %6)
  ret void
}

; Function Attrs: mustprogress nounwind uwtable
define internal noundef nonnull align 8 dereferenceable(8) ptr @"_ZNKSt9_Any_data9_M_accessIPZN4pbrt5Image23GetSamplingDistributionIZNS1_15ProjectionLightC1ENS1_9TransformENS1_15MediumInterfaceES2_PKNS1_13RGBColorSpaceEffN4pstd3pmr21polymorphic_allocatorISt4byteEEE3$_0EENS1_7Array2DIfEET_RKNS1_7Bounds2IfEESE_EUlllE_EERKSI_v"(ptr noundef nonnull align 8 dereferenceable(16) %0) #6 align 2 {
  %2 = alloca ptr, align 8
  store ptr %0, ptr %2, align 8, !tbaa !850
  %3 = load ptr, ptr %2, align 8
  %4 = call noundef ptr @_ZNKSt9_Any_data9_M_accessEv(ptr noundef nonnull align 8 dereferenceable(16) %3) #22
  ret ptr %4
}

; Function Attrs: mustprogress nounwind uwtable
define linkonce_odr dso_local noundef ptr @_ZNSt9_Any_data9_M_accessEv(ptr noundef nonnull align 8 dereferenceable(16) %0) #6 comdat align 2 {
  %2 = alloca ptr, align 8
  store ptr %0, ptr %2, align 8, !tbaa !850
  %3 = load ptr, ptr %2, align 8
  %4 = getelementptr inbounds [16 x i8], ptr %3, i64 0, i64 0
  ret ptr %4
}

; Function Attrs: mustprogress uwtable
define internal noundef zeroext i1 @"_ZNSt14_Function_base13_Base_managerIZN4pbrt5Image23GetSamplingDistributionIZNS1_15ProjectionLightC1ENS1_9TransformENS1_15MediumInterfaceES2_PKNS1_13RGBColorSpaceEffN4pstd3pmr21polymorphic_allocatorISt4byteEEE3$_0EENS1_7Array2DIfEET_RKNS1_7Bounds2IfEESE_EUlllE_E10_M_managerERSt9_Any_dataRKSP_St18_Manager_operation"(ptr noundef nonnull align 8 dereferenceable(16) %0, ptr noundef nonnull align 8 dereferenceable(16) %1, i32 noundef %2) #1 align 2 {
  %4 = alloca ptr, align 8
  %5 = alloca ptr, align 8
  %6 = alloca i32, align 4
  store ptr %0, ptr %4, align 8, !tbaa !850
  store ptr %1, ptr %5, align 8, !tbaa !850
  store i32 %2, ptr %6, align 4, !tbaa !852
  %7 = load i32, ptr %6, align 4, !tbaa !852
  switch i32 %7, label %22 [
    i32 0, label %8
    i32 1, label %11
    i32 2, label %16
    i32 3, label %20
  ]

8:                                                ; preds = %3
  %9 = load ptr, ptr %4, align 8, !tbaa !850
  %10 = call noundef nonnull align 8 dereferenceable(8) ptr @_ZNSt9_Any_data9_M_accessIPKSt9type_infoEERT_v(ptr noundef nonnull align 8 dereferenceable(16) %9) #22
  store ptr @"_ZTIZN4pbrt5Image23GetSamplingDistributionIZNS_15ProjectionLightC1ENS_9TransformENS_15MediumInterfaceES0_PKNS_13RGBColorSpaceEffN4pstd3pmr21polymorphic_allocatorISt4byteEEE3$_0EENS_7Array2DIfEET_RKNS_7Bounds2IfEESC_EUlllE_", ptr %10, align 8, !tbaa !854
  br label %22

11:                                               ; preds = %3
  %12 = load ptr, ptr %5, align 8, !tbaa !850
  %13 = call noundef ptr @"_ZNSt14_Function_base13_Base_managerIZN4pbrt5Image23GetSamplingDistributionIZNS1_15ProjectionLightC1ENS1_9TransformENS1_15MediumInterfaceES2_PKNS1_13RGBColorSpaceEffN4pstd3pmr21polymorphic_allocatorISt4byteEEE3$_0EENS1_7Array2DIfEET_RKNS1_7Bounds2IfEESE_EUlllE_E14_M_get_pointerERKSt9_Any_data"(ptr noundef nonnull align 8 dereferenceable(16) %12) #22
  %14 = load ptr, ptr %4, align 8, !tbaa !850
  %15 = call noundef nonnull align 8 dereferenceable(8) ptr @"_ZNSt9_Any_data9_M_accessIPZN4pbrt5Image23GetSamplingDistributionIZNS1_15ProjectionLightC1ENS1_9TransformENS1_15MediumInterfaceES2_PKNS1_13RGBColorSpaceEffN4pstd3pmr21polymorphic_allocatorISt4byteEEE3$_0EENS1_7Array2DIfEET_RKNS1_7Bounds2IfEESE_EUlllE_EERSI_v"(ptr noundef nonnull align 8 dereferenceable(16) %14) #22
  store ptr %13, ptr %15, align 8, !tbaa !13
  br label %22

16:                                               ; preds = %3
  %17 = load ptr, ptr %4, align 8, !tbaa !850
  %18 = load ptr, ptr %5, align 8, !tbaa !850
  %19 = call noundef ptr @"_ZNSt14_Function_base13_Base_managerIZN4pbrt5Image23GetSamplingDistributionIZNS1_15ProjectionLightC1ENS1_9TransformENS1_15MediumInterfaceES2_PKNS1_13RGBColorSpaceEffN4pstd3pmr21polymorphic_allocatorISt4byteEEE3$_0EENS1_7Array2DIfEET_RKNS1_7Bounds2IfEESE_EUlllE_E14_M_get_pointerERKSt9_Any_data"(ptr noundef nonnull align 8 dereferenceable(16) %18) #22
  call void @"_ZNSt14_Function_base13_Base_managerIZN4pbrt5Image23GetSamplingDistributionIZNS1_15ProjectionLightC1ENS1_9TransformENS1_15MediumInterfaceES2_PKNS1_13RGBColorSpaceEffN4pstd3pmr21polymorphic_allocatorISt4byteEEE3$_0EENS1_7Array2DIfEET_RKNS1_7Bounds2IfEESE_EUlllE_E15_M_init_functorIRKSN_EEvRSt9_Any_dataOSI_"(ptr noundef nonnull align 8 dereferenceable(16) %17, ptr noundef nonnull align 8 dereferenceable(32) %19)
  br label %22

20:                                               ; preds = %3
  %21 = load ptr, ptr %4, align 8, !tbaa !850
  call void @"_ZNSt14_Function_base13_Base_managerIZN4pbrt5Image23GetSamplingDistributionIZNS1_15ProjectionLightC1ENS1_9TransformENS1_15MediumInterfaceES2_PKNS1_13RGBColorSpaceEffN4pstd3pmr21polymorphic_allocatorISt4byteEEE3$_0EENS1_7Array2DIfEET_RKNS1_7Bounds2IfEESE_EUlllE_E10_M_destroyERSt9_Any_dataSt17integral_constantIbLb0EE"(ptr noundef nonnull align 8 dereferenceable(16) %21)
  br label %22

22:                                               ; preds = %3, %20, %16, %11, %8
  ret i1 false
}

; Function Attrs: mustprogress nounwind uwtable
define internal noundef nonnull align 8 dereferenceable(8) ptr @"_ZNSt9_Any_data9_M_accessIPZN4pbrt5Image23GetSamplingDistributionIZNS1_15ProjectionLightC1ENS1_9TransformENS1_15MediumInterfaceES2_PKNS1_13RGBColorSpaceEffN4pstd3pmr21polymorphic_allocatorISt4byteEEE3$_0EENS1_7Array2DIfEET_RKNS1_7Bounds2IfEESE_EUlllE_EERSI_v"(ptr noundef nonnull align 8 dereferenceable(16) %0) #6 align 2 {
  %2 = alloca ptr, align 8
  store ptr %0, ptr %2, align 8, !tbaa !850
  %3 = load ptr, ptr %2, align 8
  %4 = call noundef ptr @_ZNSt9_Any_data9_M_accessEv(ptr noundef nonnull align 8 dereferenceable(16) %3) #22
  ret ptr %4
}

; Function Attrs: mustprogress nounwind uwtable
define internal noundef ptr @"_ZNSt14_Function_base13_Base_managerIZN4pbrt5Image23GetSamplingDistributionIZNS1_15ProjectionLightC1ENS1_9TransformENS1_15MediumInterfaceES2_PKNS1_13RGBColorSpaceEffN4pstd3pmr21polymorphic_allocatorISt4byteEEE3$_0EENS1_7Array2DIfEET_RKNS1_7Bounds2IfEESE_EUlllE_E14_M_get_pointerERKSt9_Any_data"(ptr noundef nonnull align 8 dereferenceable(16) %0) #6 align 2 {
  %2 = alloca ptr, align 8
  store ptr %0, ptr %2, align 8, !tbaa !850
  %3 = load ptr, ptr %2, align 8, !tbaa !850
  %4 = call noundef nonnull align 8 dereferenceable(8) ptr @"_ZNKSt9_Any_data9_M_accessIPZN4pbrt5Image23GetSamplingDistributionIZNS1_15ProjectionLightC1ENS1_9TransformENS1_15MediumInterfaceES2_PKNS1_13RGBColorSpaceEffN4pstd3pmr21polymorphic_allocatorISt4byteEEE3$_0EENS1_7Array2DIfEET_RKNS1_7Bounds2IfEESE_EUlllE_EERKSI_v"(ptr noundef nonnull align 8 dereferenceable(16) %3) #22
  %5 = load ptr, ptr %4, align 8, !tbaa !13
  ret ptr %5
}

; Function Attrs: mustprogress nounwind uwtable
define linkonce_odr dso_local noundef nonnull align 8 dereferenceable(8) ptr @_ZNSt9_Any_data9_M_accessIPKSt9type_infoEERT_v(ptr noundef nonnull align 8 dereferenceable(16) %0) #6 comdat align 2 {
  %2 = alloca ptr, align 8
  store ptr %0, ptr %2, align 8, !tbaa !850
  %3 = load ptr, ptr %2, align 8
  %4 = call noundef ptr @_ZNSt9_Any_data9_M_accessEv(ptr noundef nonnull align 8 dereferenceable(16) %3) #22
  ret ptr %4
}

; Function Attrs: mustprogress uwtable
define internal noundef zeroext i1 @"_ZNSt17_Function_handlerIFvllEZN4pbrt5Image23GetSamplingDistributionIZNS1_15ProjectionLightC1ENS1_9TransformENS1_15MediumInterfaceES2_PKNS1_13RGBColorSpaceEffN4pstd3pmr21polymorphic_allocatorISt4byteEEE3$_0EENS1_7Array2DIfEET_RKNS1_7Bounds2IfEESE_EUlllE_E10_M_managerERSt9_Any_dataRKSP_St18_Manager_operation"(ptr noundef nonnull align 8 dereferenceable(16) %0, ptr noundef nonnull align 8 dereferenceable(16) %1, i32 noundef %2) #1 align 2 {
  %4 = alloca ptr, align 8
  %5 = alloca ptr, align 8
  %6 = alloca i32, align 4
  store ptr %0, ptr %4, align 8, !tbaa !850
  store ptr %1, ptr %5, align 8, !tbaa !850
  store i32 %2, ptr %6, align 4, !tbaa !852
  %7 = load i32, ptr %6, align 4, !tbaa !852
  switch i32 %7, label %16 [
    i32 0, label %8
    i32 1, label %11
  ]

8:                                                ; preds = %3
  %9 = load ptr, ptr %4, align 8, !tbaa !850
  %10 = call noundef nonnull align 8 dereferenceable(8) ptr @_ZNSt9_Any_data9_M_accessIPKSt9type_infoEERT_v(ptr noundef nonnull align 8 dereferenceable(16) %9) #22
  store ptr @"_ZTIZN4pbrt5Image23GetSamplingDistributionIZNS_15ProjectionLightC1ENS_9TransformENS_15MediumInterfaceES0_PKNS_13RGBColorSpaceEffN4pstd3pmr21polymorphic_allocatorISt4byteEEE3$_0EENS_7Array2DIfEET_RKNS_7Bounds2IfEESC_EUlllE_", ptr %10, align 8, !tbaa !854
  br label %21

11:                                               ; preds = %3
  %12 = load ptr, ptr %5, align 8, !tbaa !850
  %13 = call noundef ptr @"_ZNSt14_Function_base13_Base_managerIZN4pbrt5Image23GetSamplingDistributionIZNS1_15ProjectionLightC1ENS1_9TransformENS1_15MediumInterfaceES2_PKNS1_13RGBColorSpaceEffN4pstd3pmr21polymorphic_allocatorISt4byteEEE3$_0EENS1_7Array2DIfEET_RKNS1_7Bounds2IfEESE_EUlllE_E14_M_get_pointerERKSt9_Any_data"(ptr noundef nonnull align 8 dereferenceable(16) %12) #22
  %14 = load ptr, ptr %4, align 8, !tbaa !850
  %15 = call noundef nonnull align 8 dereferenceable(8) ptr @"_ZNSt9_Any_data9_M_accessIPZN4pbrt5Image23GetSamplingDistributionIZNS1_15ProjectionLightC1ENS1_9TransformENS1_15MediumInterfaceES2_PKNS1_13RGBColorSpaceEffN4pstd3pmr21polymorphic_allocatorISt4byteEEE3$_0EENS1_7Array2DIfEET_RKNS1_7Bounds2IfEESE_EUlllE_EERSI_v"(ptr noundef nonnull align 8 dereferenceable(16) %14) #22
  store ptr %13, ptr %15, align 8, !tbaa !13
  br label %21

16:                                               ; preds = %3
  %17 = load ptr, ptr %4, align 8, !tbaa !850
  %18 = load ptr, ptr %5, align 8, !tbaa !850
  %19 = load i32, ptr %6, align 4, !tbaa !852
  %20 = call noundef zeroext i1 @"_ZNSt14_Function_base13_Base_managerIZN4pbrt5Image23GetSamplingDistributionIZNS1_15ProjectionLightC1ENS1_9TransformENS1_15MediumInterfaceES2_PKNS1_13RGBColorSpaceEffN4pstd3pmr21polymorphic_allocatorISt4byteEEE3$_0EENS1_7Array2DIfEET_RKNS1_7Bounds2IfEESE_EUlllE_E10_M_managerERSt9_Any_dataRKSP_St18_Manager_operation"(ptr noundef nonnull align 8 dereferenceable(16) %17, ptr noundef nonnull align 8 dereferenceable(16) %18, i32 noundef %19)
  br label %21

21:                                               ; preds = %16, %11, %8
  ret i1 false
}