; Function Attrs: mustprogress uwtable
define internal noundef zeroext i1 @"_ZNSt17_Function_handlerIFvllEZN4pbrt5Image23GetSamplingDistributionIZNS1_15ProjectionLightC1ENS1_9TransformENS1_15MediumInterfaceES2_PKNS1_13RGBColorSpaceEffN4pstd3pmr21polymorphic_allocatorISt4byteEEE3$_0EENS1_7Array2DIfEET_RKNS1_7Bounds2IfEESE_EUlllE_E10_M_managerERSt9_Any_dataRKSP_St18_Manager_operation"(ptr noundef nonnull align 8 captures(none) dereferenceable(16) %0, ptr noundef nonnull readonly align 8 captures(none) dereferenceable(16) %1, i32 noundef %2) #2 align 2 {
  switch i32 %2, label %"_ZNSt14_Function_base13_Base_managerIZN4pbrt5Image23GetSamplingDistributionIZNS1_15ProjectionLightC1ENS1_9TransformENS1_15MediumInterfaceES2_PKNS1_13RGBColorSpaceEffN4pstd3pmr21polymorphic_allocatorISt4byteEEE3$_0EENS1_7Array2DIfEET_RKNS1_7Bounds2IfEESE_EUlllE_E10_M_managerERSt9_Any_dataRKSP_St18_Manager_operation.exit" [
    i32 0, label %4
    i32 1, label %5
    i32 3, label %8
    i32 2, label %6
  ]

4:                                                ; preds = %3
  store ptr @"_ZTIZN4pbrt5Image23GetSamplingDistributionIZNS_15ProjectionLightC1ENS_9TransformENS_15MediumInterfaceES0_PKNS_13RGBColorSpaceEffN4pstd3pmr21polymorphic_allocatorISt4byteEEE3$_0EENS_7Array2DIfEET_RKNS_7Bounds2IfEESC_EUlllE_", ptr %0, align 8, !tbaa !1062
  br label %"_ZNSt14_Function_base13_Base_managerIZN4pbrt5Image23GetSamplingDistributionIZNS1_15ProjectionLightC1ENS1_9TransformENS1_15MediumInterfaceES2_PKNS1_13RGBColorSpaceEffN4pstd3pmr21polymorphic_allocatorISt4byteEEE3$_0EENS1_7Array2DIfEET_RKNS1_7Bounds2IfEESE_EUlllE_E10_M_managerERSt9_Any_dataRKSP_St18_Manager_operation.exit"

5:                                                ; preds = %3
  %.val = load ptr, ptr %1, align 8, !tbaa !204
  store ptr %.val, ptr %0, align 8, !tbaa !204
  br label %"_ZNSt14_Function_base13_Base_managerIZN4pbrt5Image23GetSamplingDistributionIZNS1_15ProjectionLightC1ENS1_9TransformENS1_15MediumInterfaceES2_PKNS1_13RGBColorSpaceEffN4pstd3pmr21polymorphic_allocatorISt4byteEEE3$_0EENS1_7Array2DIfEET_RKNS1_7Bounds2IfEESE_EUlllE_E10_M_managerERSt9_Any_dataRKSP_St18_Manager_operation.exit"

6:                                                ; preds = %3
  %.val6 = load ptr, ptr %1, align 8
  %7 = tail call noalias noundef nonnull dereferenceable(32) ptr @_Znwm(i64 noundef 32) #39
  tail call void @llvm.memcpy.p0.p0.i64(ptr noundef nonnull align 16 dereferenceable(32) %7, ptr noundef nonnull readonly align 8 dereferenceable(32) %.val6, i64 32, i1 false), !tbaa.struct !1064
  store ptr %7, ptr %0, align 8, !tbaa !204
  br label %"_ZNSt14_Function_base13_Base_managerIZN4pbrt5Image23GetSamplingDistributionIZNS1_15ProjectionLightC1ENS1_9TransformENS1_15MediumInterfaceES2_PKNS1_13RGBColorSpaceEffN4pstd3pmr21polymorphic_allocatorISt4byteEEE3$_0EENS1_7Array2DIfEET_RKNS1_7Bounds2IfEESE_EUlllE_E10_M_managerERSt9_Any_dataRKSP_St18_Manager_operation.exit"

8:                                                ; preds = %3
  %.val7.i = load ptr, ptr %0, align 8, !tbaa !204
  %9 = icmp eq ptr %.val7.i, null
  br i1 %9, label %"_ZNSt14_Function_base13_Base_managerIZN4pbrt5Image23GetSamplingDistributionIZNS1_15ProjectionLightC1ENS1_9TransformENS1_15MediumInterfaceES2_PKNS1_13RGBColorSpaceEffN4pstd3pmr21polymorphic_allocatorISt4byteEEE3$_0EENS1_7Array2DIfEET_RKNS1_7Bounds2IfEESE_EUlllE_E10_M_managerERSt9_Any_dataRKSP_St18_Manager_operation.exit", label %10

10:                                               ; preds = %8
  tail call void @_ZdlPvm(ptr noundef nonnull %.val7.i, i64 noundef 32) #36
  br label %"_ZNSt14_Function_base13_Base_managerIZN4pbrt5Image23GetSamplingDistributionIZNS1_15ProjectionLightC1ENS1_9TransformENS1_15MediumInterfaceES2_PKNS1_13RGBColorSpaceEffN4pstd3pmr21polymorphic_allocatorISt4byteEEE3$_0EENS1_7Array2DIfEET_RKNS1_7Bounds2IfEESE_EUlllE_E10_M_managerERSt9_Any_dataRKSP_St18_Manager_operation.exit"

"_ZNSt14_Function_base13_Base_managerIZN4pbrt5Image23GetSamplingDistributionIZNS1_15ProjectionLightC1ENS1_9TransformENS1_15MediumInterfaceES2_PKNS1_13RGBColorSpaceEffN4pstd3pmr21polymorphic_allocatorISt4byteEEE3$_0EENS1_7Array2DIfEET_RKNS1_7Bounds2IfEESE_EUlllE_E10_M_managerERSt9_Any_dataRKSP_St18_Manager_operation.exit": ; preds = %3, %10, %8, %6, %5, %4
  ret i1 false
}